target datalayout = "e-m:e-p270:32:32-p271:32:32-p272:64:64-i64:64-i128:128-f80:128-n8:16:32:64-S128"
target triple = "x86_64-pc-linux-gnu"

%"class.LIEF::PE::Repro" = type { %"class.LIEF::PE::Debug.base", %"class.std::vector" }
%"class.LIEF::PE::Debug.base" = type <{ %"class.LIEF::Object", i32, i32, i32, i16, i16, i32, i32, i32 }>
%"class.LIEF::Object" = type { ptr }
%"class.std::vector" = type { %"struct.std::_Vector_base" }
%"struct.std::_Vector_base" = type { %"struct.std::_Vector_base<unsigned char, std::allocator<unsigned char>>::_Vector_impl" }
%"struct.std::_Vector_base<unsigned char, std::allocator<unsigned char>>::_Vector_impl" = type { %"struct.std::_Vector_base<unsigned char, std::allocator<unsigned char>>::_Vector_impl_data" }
%"struct.std::_Vector_base<unsigned char, std::allocator<unsigned char>>::_Vector_impl_data" = type { ptr, ptr, ptr }
%"class.fmt::v9::basic_string_view" = type { ptr, i64 }
%"class.fmt::v9::basic_format_string" = type { %"class.fmt::v9::basic_string_view" }
%"class.fmt::v9::basic_format_args" = type { i64, %union.anon.10 }
%union.anon.10 = type { ptr }
%"class.fmt::v9::format_arg_store" = type { %"struct.fmt::v9::detail::arg_data" }
%"struct.fmt::v9::detail::arg_data" = type { [1 x %"class.fmt::v9::detail::value"] }
%"class.fmt::v9::detail::value" = type { %union.anon.11 }
%union.anon.11 = type { i128 }
%"class.std::__cxx11::basic_string" = type { %"struct.std::__cxx11::basic_string<char>::_Alloc_hider", i64, %union.anon.6 }
%"struct.std::__cxx11::basic_string<char>::_Alloc_hider" = type { ptr }
%union.anon.6 = type { i64, [8 x i8] }
%"class.tcb::span" = type { %"struct.tcb::detail::span_storage" }
%"struct.tcb::detail::span_storage" = type { ptr, i64 }
%"struct.fmt::v9::detail::arg_mapper" = type { i8 }
%"struct.fmt::v9::detail::custom_value" = type { ptr, ptr }

@.str = private unnamed_addr constant [9 x i8] c"Hash: {}\00", align 1

; Function Attrs: mustprogress nounwind uwtable
define linkonce_odr hidden noundef ptr @_ZNKSt6vectorIhSaIhEE11_M_data_ptrIhEEPT_S4_(ptr noundef nonnull align 8 dereferenceable(24) %0, ptr noundef %1) #1 comdat align 2 {
  %3 = alloca ptr, align 8
  %4 = alloca ptr, align 8
  store ptr %0, ptr %3, align 8
  store ptr %1, ptr %4, align 8
  %5 = load ptr, ptr %4, align 8
  ret ptr %5
}

; Function Attrs: mustprogress nounwind uwtable
define linkonce_odr hidden noundef i64 @_ZNKSt6vectorIhSaIhEE4sizeEv(ptr noundef nonnull align 8 dereferenceable(24) %0) #1 comdat align 2 {
  %2 = alloca ptr, align 8
  store ptr %0, ptr %2, align 8
  %3 = load ptr, ptr %2, align 8
  %4 = getelementptr inbounds %"struct.std::_Vector_base", ptr %3, i32 0, i32 0
  %5 = getelementptr inbounds %"struct.std::_Vector_base<unsigned char, std::allocator<unsigned char>>::_Vector_impl_data", ptr %4, i32 0, i32 1
  %6 = load ptr, ptr %5, align 8
  %7 = getelementptr inbounds %"struct.std::_Vector_base", ptr %3, i32 0, i32 0
  %8 = getelementptr inbounds %"struct.std::_Vector_base<unsigned char, std::allocator<unsigned char>>::_Vector_impl_data", ptr %7, i32 0, i32 0
  %9 = load ptr, ptr %8, align 8
  %10 = ptrtoint ptr %6 to i64
  %11 = ptrtoint ptr %9 to i64
  %12 = sub i64 %10, %11
  ret i64 %12
}

; Function Attrs: mustprogress nounwind uwtable
define linkonce_odr hidden noundef ptr @_ZNKSt6vectorIhSaIhEE4dataEv(ptr noundef nonnull align 8 dereferenceable(24) %0) #1 comdat align 2 {
  %2 = alloca ptr, align 8
  store ptr %0, ptr %2, align 8
  %3 = load ptr, ptr %2, align 8
  %4 = getelementptr inbounds %"struct.std::_Vector_base", ptr %3, i32 0, i32 0
  %5 = getelementptr inbounds %"struct.std::_Vector_base<unsigned char, std::allocator<unsigned char>>::_Vector_impl_data", ptr %4, i32 0, i32 0
  %6 = load ptr, ptr %5, align 8
  %7 = call noundef ptr @_ZNKSt6vectorIhSaIhEE11_M_data_ptrIhEEPT_S4_(ptr noundef nonnull align 8 dereferenceable(24) %3, ptr noundef %6) #16
  ret ptr %7
}

; Function Attrs: mustprogress nounwind uwtable
define linkonce_odr hidden void @_ZN3tcb6detail12span_storageIKhLm18446744073709551615EEC2EPS2_m(ptr noundef nonnull align 8 dereferenceable(16) %0, ptr noundef %1, i64 noundef %2) unnamed_addr #1 comdat align 2 {
  %4 = alloca ptr, align 8
  %5 = alloca ptr, align 8
  %6 = alloca i64, align 8
  store ptr %0, ptr %4, align 8
  store ptr %1, ptr %5, align 8
  store i64 %2, ptr %6, align 8
  %7 = load ptr, ptr %4, align 8
  %8 = getelementptr inbounds %"struct.tcb::detail::span_storage", ptr %7, i32 0, i32 0
  %9 = load ptr, ptr %5, align 8
  store ptr %9, ptr %8, align 8
  %10 = getelementptr inbounds %"struct.tcb::detail::span_storage", ptr %7, i32 0, i32 1
  %11 = load i64, ptr %6, align 8
  store i64 %11, ptr %10, align 8
  ret void
}

; Function Attrs: mustprogress nounwind uwtable
define linkonce_odr noundef i64 @_ZSt4sizeISt6vectorIhSaIhEEEDTcldtfp_4sizeEERKT_(ptr noundef nonnull align 8 dereferenceable(24) %0) #1 comdat {
  %2 = alloca ptr, align 8
  store ptr %0, ptr %2, align 8
  %3 = load ptr, ptr %2, align 8
  %4 = call noundef i64 @_ZNKSt6vectorIhSaIhEE4sizeEv(ptr noundef nonnull align 8 dereferenceable(24) %3) #16
  ret i64 %4
}

; Function Attrs: mustprogress nounwind uwtable
define linkonce_odr noundef ptr @_ZSt4dataISt6vectorIhSaIhEEEDTcldtfp_4dataEERKT_(ptr noundef nonnull align 8 dereferenceable(24) %0) #1 comdat {
  %2 = alloca ptr, align 8
  store ptr %0, ptr %2, align 8
  %3 = load ptr, ptr %2, align 8
  %4 = call noundef ptr @_ZNKSt6vectorIhSaIhEE4dataEv(ptr noundef nonnull align 8 dereferenceable(24) %3) #16
  ret ptr %4
}

; Function Attrs: mustprogress nounwind uwtable
define linkonce_odr hidden void @_ZN3tcb4spanIKhLm18446744073709551615EEC2ISt6vectorIhSaIhEELm18446744073709551615ETnNSt9enable_ifIXaaaaeqT0_L_ZNS_14dynamic_extentEEsr6detail12is_containerIT_EE5valuesr6detail36is_container_element_type_compatibleIRKS8_S1_EE5valueEiE4typeELi0EEESA_(ptr noundef nonnull align 8 dereferenceable(16) %0, ptr noundef nonnull align 8 dereferenceable(24) %1) unnamed_addr #1 comdat align 2 {
  %3 = alloca ptr, align 8
  %4 = alloca ptr, align 8
  store ptr %0, ptr %3, align 8
  store ptr %1, ptr %4, align 8
  %5 = load ptr, ptr %3, align 8
  %6 = getelementptr inbounds %"class.tcb::span", ptr %5, i32 0, i32 0
  %7 = load ptr, ptr %4, align 8
  %8 = call noundef ptr @_ZSt4dataISt6vectorIhSaIhEEEDTcldtfp_4dataEERKT_(ptr noundef nonnull align 8 dereferenceable(24) %7) #16
  %9 = load ptr, ptr %4, align 8
  %10 = call noundef i64 @_ZSt4sizeISt6vectorIhSaIhEEEDTcldtfp_4sizeEERKT_(ptr noundef nonnull align 8 dereferenceable(24) %9) #16
  call void @_ZN3tcb6detail12span_storageIKhLm18446744073709551615EEC2EPS2_m(ptr noundef nonnull align 8 dereferenceable(16) %6, ptr noundef %8, i64 noundef %10) #16
  ret void
}

; Function Attrs: mustprogress uwtable
define linkonce_odr hidden { i64, i64 } @_ZN3fmt2v916make_format_argsINS0_20basic_format_contextINS0_8appenderEcEEJRN3tcb4spanIKhLm18446744073709551615EEEEEENS0_16format_arg_storeIT_JDpNSt9remove_cvINSt16remove_referenceIT0_E4typeEE4typeEEEEDpOSE_(ptr noundef nonnull align 8 dereferenceable(16) %0) #3 comdat {
  %2 = alloca ptr, align 8
  %3 = alloca ptr, align 8
  %4 = alloca ptr, align 8
  %5 = alloca ptr, align 8
  %6 = alloca ptr, align 8
  %7 = alloca ptr, align 8
  %8 = alloca %"class.fmt::v9::detail::value", align 16
  %9 = alloca ptr, align 8
  %10 = alloca ptr, align 8
  %11 = alloca %"struct.fmt::v9::detail::arg_mapper", align 1
  %12 = alloca i8, align 1
  %13 = alloca i8, align 1
  %14 = alloca i8, align 1
  %15 = alloca i8, align 1
  %16 = alloca ptr, align 8
  %17 = alloca ptr, align 8
  %18 = alloca i32, align 4
  %19 = alloca i32, align 4
  %20 = alloca ptr, align 8
  %21 = alloca ptr, align 8
  %22 = alloca ptr, align 8
  %23 = alloca %"class.fmt::v9::detail::value", align 16
  %24 = alloca ptr, align 8
  %25 = alloca ptr, align 8
  %26 = alloca ptr, align 8
  %27 = alloca %"class.fmt::v9::detail::value", align 16
  %28 = alloca %"class.fmt::v9::format_arg_store", align 16
  %29 = alloca ptr, align 8
  store ptr %0, ptr %29, align 8
  %30 = load ptr, ptr %29, align 8
  store ptr %28, ptr %25, align 8
  store ptr %30, ptr %26, align 8
  %31 = load ptr, ptr %25, align 8
  %32 = load ptr, ptr %26, align 8
  store ptr %32, ptr %24, align 8
  %33 = load ptr, ptr %24, align 8
  store ptr %33, ptr %9, align 8
  %34 = load ptr, ptr %9, align 8
  store ptr %11, ptr %6, align 8
  store ptr %34, ptr %7, align 8
  %35 = load ptr, ptr %6, align 8
  %36 = load ptr, ptr %7, align 8
  store ptr %35, ptr %2, align 8
  store ptr %36, ptr %3, align 8
  %37 = load ptr, ptr %3, align 8
  store ptr %37, ptr %10, align 8
  store i8 1, ptr %12, align 1
  store i8 1, ptr %13, align 1
  store i8 1, ptr %14, align 1
  store i8 1, ptr %15, align 1
  %38 = load ptr, ptr %10, align 8
  store ptr %8, ptr %4, align 8
  store ptr %38, ptr %5, align 8
  %39 = load ptr, ptr %4, align 8
  %40 = load ptr, ptr %5, align 8
  store ptr %40, ptr %39, align 16
  %41 = getelementptr inbounds %"struct.fmt::v9::detail::custom_value", ptr %39, i32 0, i32 1
  store ptr @_ZN3fmt2v96detail5valueINS0_20basic_format_contextINS0_8appenderEcEEE17format_custom_argIN3tcb4spanIKhLm18446744073709551615EEENS0_9formatterISB_cvEEEEvPvRNS0_26basic_format_parse_contextIcNS1_13error_handlerEEERS5_, ptr %41, align 8
  %42 = load { i64, i64 }, ptr %8, align 16
  %43 = extractvalue { i64, i64 } %42, 0
  store i64 %43, ptr %23, align 16
  %44 = getelementptr inbounds { i64, i64 }, ptr %23, i32 0, i32 1
  %45 = extractvalue { i64, i64 } %42, 1
  store i64 %45, ptr %44, align 8
  %46 = load { i64, i64 }, ptr %23, align 16
  %47 = extractvalue { i64, i64 } %46, 0
  store i64 %47, ptr %27, align 16
  %48 = getelementptr inbounds { i64, i64 }, ptr %27, i32 0, i32 1
  %49 = extractvalue { i64, i64 } %46, 1
  store i64 %49, ptr %48, align 8
  store ptr %31, ptr %21, align 8
  store ptr %27, ptr %22, align 8
  %50 = load ptr, ptr %21, align 8
  %51 = load ptr, ptr %22, align 8
  call void @llvm.memcpy.p0.p0.i64(ptr align 16 %50, ptr align 16 %51, i64 16, i1 false)
  store ptr %31, ptr %16, align 8
  %52 = load ptr, ptr %26, align 8
  store ptr null, ptr %17, align 8
  store i32 0, ptr %18, align 4
  store i32 0, ptr %19, align 4
  store ptr %52, ptr %20, align 8
  %53 = getelementptr inbounds %"class.fmt::v9::format_arg_store", ptr %28, i32 0, i32 0
  %54 = getelementptr inbounds %"struct.fmt::v9::detail::arg_data", ptr %53, i32 0, i32 0
  %55 = load { i64, i64 }, ptr %54, align 16
  ret { i64, i64 } %55
}

; Function Attrs: mustprogress uwtable
define linkonce_odr hidden { ptr, i64 } @_ZNK4LIEF2PE5Repro4hashEv(ptr noundef nonnull align 8 dereferenceable(64) %0) #3 comdat align 2 {
  %2 = alloca %"class.tcb::span", align 8
  %3 = alloca ptr, align 8
  store ptr %0, ptr %3, align 8
  %4 = load ptr, ptr %3, align 8
  %5 = getelementptr inbounds %"class.LIEF::PE::Repro", ptr %4, i32 0, i32 1
  call void @_ZN3tcb4spanIKhLm18446744073709551615EEC2ISt6vectorIhSaIhEELm18446744073709551615ETnNSt9enable_ifIXaaaaeqT0_L_ZNS_14dynamic_extentEEsr6detail12is_containerIT_EE5valuesr6detail36is_container_element_type_compatibleIRKS8_S1_EE5valueEiE4typeELi0EEESA_(ptr noundef nonnull align 8 dereferenceable(16) %2, ptr noundef nonnull align 8 dereferenceable(24) %5)
  %6 = getelementptr inbounds %"class.tcb::span", ptr %2, i32 0, i32 0
  %7 = load { ptr, i64 }, ptr %6, align 8
  ret { ptr, i64 } %7
}

; Function Attrs: mustprogress nounwind uwtable
define linkonce_odr hidden noundef i64 @_ZNSt11char_traitsIcE6lengthEPKc(ptr noundef %0) #1 comdat align 2 {
  %2 = alloca ptr, align 8
  store ptr %0, ptr %2, align 8
  %3 = load ptr, ptr %2, align 8
  %4 = call i64 @strlen(ptr noundef %3) #16
  ret i64 %4
}

; Function Attrs: mustprogress uwtable
define noundef nonnull align 8 dereferenceable(8) ptr @_ZN4LIEF2PElsERSoRKNS0_5ReproE(ptr noundef nonnull align 8 dereferenceable(8) %0, ptr noundef nonnull align 8 dereferenceable(64) %1) #3 personality ptr @__gxx_personality_v0 {
  %3 = alloca ptr, align 8
  %4 = alloca ptr, align 8
  %5 = alloca i64, align 8
  %6 = alloca ptr, align 8
  %7 = alloca ptr, align 8
  %8 = alloca ptr, align 8
  %9 = alloca ptr, align 8
  %10 = alloca ptr, align 8
  %11 = alloca ptr, align 8
  %12 = alloca %"class.fmt::v9::basic_string_view", align 8
  %13 = alloca ptr, align 8
  %14 = alloca ptr, align 8
  %15 = alloca ptr, align 8
  %16 = alloca ptr, align 8
  %17 = alloca %"class.fmt::v9::basic_format_string", align 8
  %18 = alloca ptr, align 8
  %19 = alloca %"class.fmt::v9::basic_string_view", align 8
  %20 = alloca %"class.fmt::v9::basic_format_args", align 8
  %21 = alloca %"class.fmt::v9::format_arg_store", align 16
  %22 = alloca ptr, align 8
  %23 = alloca ptr, align 8
  %24 = alloca %"class.std::__cxx11::basic_string", align 8
  %25 = alloca %"class.fmt::v9::basic_format_string", align 8
  %26 = alloca %"class.tcb::span", align 8
  %27 = alloca ptr, align 8
  %28 = alloca i32, align 4
  store ptr %0, ptr %22, align 8
  store ptr %1, ptr %23, align 8
  %29 = load ptr, ptr %22, align 8
  store ptr %25, ptr %14, align 8
  store ptr @.str, ptr %15, align 8
  %30 = load ptr, ptr %14, align 8
  %31 = load ptr, ptr %15, align 8
  store ptr %30, ptr %8, align 8
  store ptr %31, ptr %9, align 8
  %32 = load ptr, ptr %8, align 8
  %33 = load ptr, ptr %9, align 8
  store ptr %33, ptr %32, align 8
  %34 = getelementptr inbounds %"class.fmt::v9::basic_string_view", ptr %32, i32 0, i32 1
  %35 = load ptr, ptr %9, align 8
  %36 = call noundef i64 @_ZNSt11char_traitsIcE6lengthEPKc(ptr noundef %35)
  store i64 %36, ptr %34, align 8
  %37 = load ptr, ptr %15, align 8
  store ptr %37, ptr %3, align 8
  %38 = load ptr, ptr %23, align 8
  %39 = call { ptr, i64 } @_ZNK4LIEF2PE5Repro4hashEv(ptr noundef nonnull align 8 dereferenceable(64) %38)
  %40 = getelementptr inbounds %"class.tcb::span", ptr %26, i32 0, i32 0
  %41 = getelementptr inbounds { ptr, i64 }, ptr %40, i32 0, i32 0
  %42 = extractvalue { ptr, i64 } %39, 0
  store ptr %42, ptr %41, align 8
  %43 = getelementptr inbounds { ptr, i64 }, ptr %40, i32 0, i32 1
  %44 = extractvalue { ptr, i64 } %39, 1
  store i64 %44, ptr %43, align 8
  %45 = getelementptr inbounds { ptr, i64 }, ptr %25, i32 0, i32 0
  %46 = load ptr, ptr %45, align 8
  %47 = getelementptr inbounds { ptr, i64 }, ptr %25, i32 0, i32 1
  %48 = load i64, ptr %47, align 8
  call void @llvm.experimental.noalias.scope.decl(metadata !4)
  store ptr %24, ptr %16, align 8, !noalias !4
  store ptr %46, ptr %17, align 8, !noalias !4
  %49 = getelementptr inbounds { ptr, i64 }, ptr %17, i32 0, i32 1
  store i64 %48, ptr %49, align 8, !noalias !4
  store ptr %26, ptr %18, align 8, !noalias !4
  store ptr %17, ptr %13, align 8
  %50 = load ptr, ptr %13, align 8
  call void @llvm.memcpy.p0.p0.i64(ptr align 8 %12, ptr align 8 %50, i64 16, i1 false)
  %51 = load { ptr, i64 }, ptr %12, align 8
  %52 = extractvalue { ptr, i64 } %51, 0
  store ptr %52, ptr %19, align 8, !noalias !4
  %53 = getelementptr inbounds { ptr, i64 }, ptr %19, i32 0, i32 1
  %54 = extractvalue { ptr, i64 } %51, 1
  store i64 %54, ptr %53, align 8, !noalias !4
  %55 = load ptr, ptr %18, align 8, !noalias !4
  %56 = call { i64, i64 } @_ZN3fmt2v916make_format_argsINS0_20basic_format_contextINS0_8appenderEcEEJRN3tcb4spanIKhLm18446744073709551615EEEEEENS0_16format_arg_storeIT_JDpNSt9remove_cvINSt16remove_referenceIT0_E4typeEE4typeEEEEDpOSE_(ptr noundef nonnull align 8 dereferenceable(16) %55)
  %57 = extractvalue { i64, i64 } %56, 0
  store i64 %57, ptr %21, align 16, !noalias !4
  %58 = getelementptr inbounds { i64, i64 }, ptr %21, i32 0, i32 1
  %59 = extractvalue { i64, i64 } %56, 1
  store i64 %59, ptr %58, align 8, !noalias !4
  store ptr %20, ptr %10, align 8
  store ptr %21, ptr %11, align 8
  %60 = load ptr, ptr %10, align 8
  %61 = load ptr, ptr %11, align 8
  store ptr %61, ptr %7, align 8
  %62 = load ptr, ptr %7, align 8
  store ptr %60, ptr %4, align 8
  store i64 15, ptr %5, align 8
  store ptr %62, ptr %6, align 8
  %63 = load ptr, ptr %4, align 8
  %64 = load i64, ptr %5, align 8
  store i64 %64, ptr %63, align 8
  %65 = getelementptr inbounds %"class.fmt::v9::basic_format_args", ptr %63, i32 0, i32 1
  %66 = load ptr, ptr %6, align 8
  store ptr %66, ptr %65, align 8
  %67 = load ptr, ptr %19, align 8, !noalias !4
  %68 = getelementptr inbounds { ptr, i64 }, ptr %19, i32 0, i32 1
  %69 = load i64, ptr %68, align 8, !noalias !4
  %70 = load i64, ptr %20, align 8, !noalias !4
  %71 = getelementptr inbounds { i64, ptr }, ptr %20, i32 0, i32 1
  %72 = load ptr, ptr %71, align 8, !noalias !4
  call void @_ZN3fmt2v97vformatB5cxx11ENS0_17basic_string_viewIcEENS0_17basic_format_argsINS0_20basic_format_contextINS0_8appenderEcEEEE(ptr dead_on_unwind writable sret(%"class.std::__cxx11::basic_string") align 8 %24, ptr %67, i64 %69, i64 %70, ptr %72)
  %73 = invoke noundef nonnull align 8 dereferenceable(8) ptr @_ZStlsIcSt11char_traitsIcESaIcEERSt13basic_ostreamIT_T0_ES7_RKNSt7__cxx1112basic_stringIS4_S5_T1_EE(ptr noundef nonnull align 8 dereferenceable(8) %29, ptr noundef nonnull align 8 dereferenceable(32) %24)
          to label %74 unwind label %76

74:                                               ; preds = %2
  call void @_ZNSt7__cxx1112basic_stringIcSt11char_traitsIcESaIcEED1Ev(ptr noundef nonnull align 8 dereferenceable(32) %24) #16
  %75 = load ptr, ptr %22, align 8
  ret ptr %75

76:                                               ; preds = %2
  %77 = landingpad { ptr, i32 }
          cleanup
  %78 = extractvalue { ptr, i32 } %77, 0
  store ptr %78, ptr %27, align 8
  %79 = extractvalue { ptr, i32 } %77, 1
  store i32 %79, ptr %28, align 4
  call void @_ZNSt7__cxx1112basic_stringIcSt11char_traitsIcESaIcEED1Ev(ptr noundef nonnull align 8 dereferenceable(32) %24) #16
  br label %80

80:                                               ; preds = %76
  %81 = load ptr, ptr %27, align 8
  %82 = load i32, ptr %28, align 4
  %83 = insertvalue { ptr, i32 } poison, ptr %81, 0
  %84 = insertvalue { ptr, i32 } %83, i32 %82, 1
  resume { ptr, i32 } %84
}