; Function Attrs: mustprogress uwtable
define noundef nonnull align 8 dereferenceable(8) ptr @_ZN4LIEF2PElsERSoRKNS0_5ReproE(ptr noundef nonnull returned align 8 dereferenceable(8) %0, ptr nocapture noundef nonnull readonly align 8 dereferenceable(64) %1) local_unnamed_addr #3 personality ptr @__gxx_personality_v0 {
  %3 = alloca %"class.fmt::v9::format_arg_store", align 16
  %4 = alloca %"class.std::__cxx11::basic_string", align 8
  %5 = alloca %"class.tcb::span", align 8
  %6 = getelementptr inbounds i8, ptr %1, i64 40
  %7 = load ptr, ptr %6, align 8
  %8 = getelementptr inbounds i8, ptr %1, i64 48
  %9 = load ptr, ptr %8, align 8
  %10 = ptrtoint ptr %9 to i64
  %11 = ptrtoint ptr %7 to i64
  %12 = sub i64 %10, %11
  store ptr %7, ptr %5, align 8
  %13 = getelementptr inbounds i8, ptr %5, i64 8
  store i64 %12, ptr %13, align 8
  %14 = ptrtoint ptr %5 to i64
  store i64 %14, ptr %3, align 16, !noalias !4
  %15 = getelementptr inbounds i8, ptr %3, i64 8
  store i64 ptrtoint (ptr @_ZN3fmt2v96detail5valueINS0_20basic_format_contextINS0_8appenderEcEEE17format_custom_argIN3tcb4spanIKhLm18446744073709551615EEENS0_9formatterISB_cvEEEEvPvRNS0_26basic_format_parse_contextIcNS1_13error_handlerEEERS5_ to i64), ptr %15, align 8, !noalias !4
  call void @_ZN3fmt2v97vformatB5cxx11ENS0_17basic_string_viewIcEENS0_17basic_format_argsINS0_20basic_format_contextINS0_8appenderEcEEEE(ptr dead_on_unwind nonnull writable sret(%"class.std::__cxx11::basic_string") align 8 %4, ptr nonnull @.str, i64 8, i64 15, ptr nonnull %3)
  %16 = invoke noundef nonnull align 8 dereferenceable(8) ptr @_ZStlsIcSt11char_traitsIcESaIcEERSt13basic_ostreamIT_T0_ES7_RKNSt7__cxx1112basic_stringIS4_S5_T1_EE(ptr noundef nonnull align 8 dereferenceable(8) %0, ptr noundef nonnull align 8 dereferenceable(32) %4)
          to label %17 unwind label %18

17:                                               ; preds = %2
  call void @_ZNSt7__cxx1112basic_stringIcSt11char_traitsIcESaIcEED1Ev(ptr noundef nonnull align 8 dereferenceable(32) %4) #19
  ret ptr %0

18:                                               ; preds = %2
  %19 = landingpad { ptr, i32 }
          cleanup
  call void @_ZNSt7__cxx1112basic_stringIcSt11char_traitsIcESaIcEED1Ev(ptr noundef nonnull align 8 dereferenceable(32) %4) #19
  resume { ptr, i32 } %19
}